target datalayout = "e-m:e-p270:32:32-p271:32:32-p272:64:64-i64:64-i128:128-f80:128-n8:16:32:64-S128"
target triple = "x86_64-pc-linux-gnu"

%struct.ImVec2 = type { float, float }
%struct.ImGuiInputTextState = type <{ ptr, ptr, i32, i32, i32, [4 x i8], ptr, %struct.ImVector.34, %struct.ImVector.34, %struct.ImVector.34, i32, %struct.ImVec2, float, i8, i8, i8, i8, i32, i32, [4 x i8] }>
%struct.ImVector.34 = type { i32, i32, ptr }

; Function Attrs: inlinehint mustprogress nounwind uwtable
define linkonce_odr void @_ZN8ImVectorIcED2Ev(ptr noundef nonnull align 8 dereferenceable(16) %0) unnamed_addr #2 comdat align 2 personality ptr @__gxx_personality_v0 {
  %2 = alloca ptr, align 8
  store ptr %0, ptr %2, align 8, !tbaa !509
  %3 = load ptr, ptr %2, align 8
  %4 = getelementptr inbounds nuw %struct.ImVector.34, ptr %3, i32 0, i32 2
  %5 = load ptr, ptr %4, align 8, !tbaa !476
  %6 = icmp ne ptr %5, null
  br i1 %6, label %7, label %11

7:                                                ; preds = %1
  %8 = getelementptr inbounds nuw %struct.ImVector.34, ptr %3, i32 0, i32 2
  %9 = load ptr, ptr %8, align 8, !tbaa !476
  invoke void @_ZN5ImGui7MemFreeEPv(ptr noundef %9)
          to label %10 unwind label %12

10:                                               ; preds = %7
  br label %11

11:                                               ; preds = %10, %1
  ret void

12:                                               ; preds = %7
  %13 = landingpad { ptr, i32 }
          catch ptr null
  %14 = extractvalue { ptr, i32 } %13, 0
  call void @__clang_call_terminate(ptr %14) #19
  unreachable
}

; Function Attrs: mustprogress uwtable
define linkonce_odr void @_Z9IM_DELETEIN5ImStb17STB_TexteditStateEEvPT_(ptr noundef %0) #9 comdat {
  %2 = alloca ptr, align 8
  store ptr %0, ptr %2, align 8, !tbaa !512
  %3 = load ptr, ptr %2, align 8, !tbaa !512
  %4 = icmp ne ptr %3, null
  br i1 %4, label %5, label %7

5:                                                ; preds = %1
  %6 = load ptr, ptr %2, align 8, !tbaa !512
  call void @_ZN5ImGui7MemFreeEPv(ptr noundef %6)
  br label %7

7:                                                ; preds = %5, %1
  ret void
}

; Function Attrs: mustprogress nounwind uwtable
define void @_ZN19ImGuiInputTextStateD2Ev(ptr noundef nonnull align 8 dereferenceable(116) %0) unnamed_addr #4 align 2 personality ptr @__gxx_personality_v0 {
  %2 = alloca ptr, align 8
  store ptr %0, ptr %2, align 8, !tbaa !429
  %3 = load ptr, ptr %2, align 8
  %4 = getelementptr inbounds nuw %struct.ImGuiInputTextState, ptr %3, i32 0, i32 1
  %5 = load ptr, ptr %4, align 8, !tbaa !434
  invoke void @_Z9IM_DELETEIN5ImStb17STB_TexteditStateEEvPT_(ptr noundef %5)
          to label %6 unwind label %10

6:                                                ; preds = %1
  %7 = getelementptr inbounds nuw %struct.ImGuiInputTextState, ptr %3, i32 0, i32 9
  call void @_ZN8ImVectorIcED2Ev(ptr noundef nonnull align 8 dereferenceable(16) %7) #17
  %8 = getelementptr inbounds nuw %struct.ImGuiInputTextState, ptr %3, i32 0, i32 8
  call void @_ZN8ImVectorIcED2Ev(ptr noundef nonnull align 8 dereferenceable(16) %8) #17
  %9 = getelementptr inbounds nuw %struct.ImGuiInputTextState, ptr %3, i32 0, i32 7
  call void @_ZN8ImVectorIcED2Ev(ptr noundef nonnull align 8 dereferenceable(16) %9) #17
  ret void

10:                                               ; preds = %1
  %11 = landingpad { ptr, i32 }
          catch ptr null
  %12 = extractvalue { ptr, i32 } %11, 0
  call void @__clang_call_terminate(ptr %12) #19
  unreachable
}