; Function Attrs: mustprogress nounwind uwtable
define void @_ZN19ImGuiInputTextStateD2Ev(ptr noundef nonnull readonly align 8 captures(none) dereferenceable(116) %0) unnamed_addr #23 align 2 personality ptr @__gxx_personality_v0 {
  %2 = getelementptr inbounds nuw i8, ptr %0, i64 8
  %3 = load ptr, ptr %2, align 8, !tbaa !379
  %.not.i = icmp eq ptr %3, null
  br i1 %.not.i, label %_Z9IM_DELETEIN5ImStb17STB_TexteditStateEEvPT_.exit, label %4

4:                                                ; preds = %1
  invoke void @_ZN5ImGui7MemFreeEPv(ptr noundef nonnull %3)
          to label %_Z9IM_DELETEIN5ImStb17STB_TexteditStateEEvPT_.exit unwind label %23

_Z9IM_DELETEIN5ImStb17STB_TexteditStateEEvPT_.exit: ; preds = %1, %4
  %5 = getelementptr inbounds nuw i8, ptr %0, i64 80
  %6 = load ptr, ptr %5, align 8, !tbaa !389
  %.not.i1 = icmp eq ptr %6, null
  br i1 %.not.i1, label %_ZN8ImVectorIcED2Ev.exit, label %7

7:                                                ; preds = %_Z9IM_DELETEIN5ImStb17STB_TexteditStateEEvPT_.exit
  invoke void @_ZN5ImGui7MemFreeEPv(ptr noundef nonnull %6)
          to label %_ZN8ImVectorIcED2Ev.exit unwind label %8

8:                                                ; preds = %7
  %9 = landingpad { ptr, i32 }
          catch ptr null
  %10 = extractvalue { ptr, i32 } %9, 0
  tail call void @__clang_call_terminate(ptr %10) #45
  unreachable

_ZN8ImVectorIcED2Ev.exit:                         ; preds = %_Z9IM_DELETEIN5ImStb17STB_TexteditStateEEvPT_.exit, %7
  %11 = getelementptr inbounds nuw i8, ptr %0, i64 64
  %12 = load ptr, ptr %11, align 8, !tbaa !389
  %.not.i2 = icmp eq ptr %12, null
  br i1 %.not.i2, label %_ZN8ImVectorIcED2Ev.exit3, label %13

13:                                               ; preds = %_ZN8ImVectorIcED2Ev.exit
  invoke void @_ZN5ImGui7MemFreeEPv(ptr noundef nonnull %12)
          to label %_ZN8ImVectorIcED2Ev.exit3 unwind label %14

14:                                               ; preds = %13
  %15 = landingpad { ptr, i32 }
          catch ptr null
  %16 = extractvalue { ptr, i32 } %15, 0
  tail call void @__clang_call_terminate(ptr %16) #45
  unreachable

_ZN8ImVectorIcED2Ev.exit3:                        ; preds = %_ZN8ImVectorIcED2Ev.exit, %13
  %17 = getelementptr inbounds nuw i8, ptr %0, i64 48
  %18 = load ptr, ptr %17, align 8, !tbaa !389
  %.not.i4 = icmp eq ptr %18, null
  br i1 %.not.i4, label %_ZN8ImVectorIcED2Ev.exit5, label %19

19:                                               ; preds = %_ZN8ImVectorIcED2Ev.exit3
  invoke void @_ZN5ImGui7MemFreeEPv(ptr noundef nonnull %18)
          to label %_ZN8ImVectorIcED2Ev.exit5 unwind label %20

20:                                               ; preds = %19
  %21 = landingpad { ptr, i32 }
          catch ptr null
  %22 = extractvalue { ptr, i32 } %21, 0
  tail call void @__clang_call_terminate(ptr %22) #45
  unreachable

_ZN8ImVectorIcED2Ev.exit5:                        ; preds = %_ZN8ImVectorIcED2Ev.exit3, %19
  ret void

23:                                               ; preds = %4
  %24 = landingpad { ptr, i32 }
          catch ptr null
  %25 = extractvalue { ptr, i32 } %24, 0
  tail call void @__clang_call_terminate(ptr %25) #45
  unreachable
}